; ModuleID = '17/73.c'
source_filename = "17/73.c"
target datalayout = "e-m:e-p270:32:32-p271:32:32-p272:64:64-i64:64-f80:128-n8:16:32:64-S128"
target triple = "x86_64-pc-linux-gnu"

@.str = private unnamed_addr constant [4 x i8] c"%s\0A\00", align 1
@.str.1 = private unnamed_addr constant [2 x i8] c"$\00", align 1
@.str.2 = private unnamed_addr constant [2 x i8] c"?\00", align 1
@.str.3 = private unnamed_addr constant [2 x i8] c" \00", align 1
@.str.4 = private unnamed_addr constant [2 x i8] c"\0A\00", align 1

; Function Attrs: noinline nounwind uwtable
define dso_local i32 @main() #0 {
  %1 = alloca i32, align 4
  %2 = alloca [120 x i32], align 16
  %3 = alloca [120 x i8], align 16
  %4 = alloca [120 x i8], align 16
  %5 = alloca i32, align 4
  %6 = alloca i32, align 4
  %7 = alloca i32, align 4
  %8 = alloca i32, align 4
  %9 = alloca i32, align 4
  %10 = alloca i32, align 4
  store i32 0, i32* %1, align 4
  br label %11

11:                                               ; preds = %0, %200
  %12 = getelementptr inbounds [120 x i8], [120 x i8]* %3, i64 0, i64 0
  %13 = call i32 (i8*, ...) bitcast (i32 (...)* @gets to i32 (i8*, ...)*)(i8* %12)
  %14 = getelementptr inbounds [120 x i8], [120 x i8]* %3, i64 0, i64 0
  %15 = getelementptr inbounds [120 x i8], [120 x i8]* %4, i64 0, i64 0
  %16 = call i32 @strcmp(i8* %14, i8* %15) #5
  %17 = icmp eq i32 %16, 0
  br i1 %17, label %18, label %19

18:                                               ; preds = %11
  br label %202

19:                                               ; preds = %11
  %20 = getelementptr inbounds [120 x i8], [120 x i8]* %4, i64 0, i64 0
  %21 = getelementptr inbounds [120 x i8], [120 x i8]* %3, i64 0, i64 0
  %22 = call i8* @strcpy(i8* %20, i8* %21) #6
  %23 = getelementptr inbounds [120 x i32], [120 x i32]* %2, i64 0, i64 0
  %24 = bitcast i32* %23 to i8*
  call void @llvm.memset.p0i8.i64(i8* align 16 %24, i8 0, i64 480, i1 false)
  %25 = getelementptr inbounds [120 x i8], [120 x i8]* %3, i64 0, i64 0
  %26 = call i64 @strlen(i8* %25) #5
  %27 = trunc i64 %26 to i32
  store i32 %27, i32* %10, align 4
  store i32 0, i32* %5, align 4
  br label %28

28:                                               ; preds = %55, %19
  %29 = load i32, i32* %5, align 4
  %30 = load i32, i32* %10, align 4
  %31 = icmp slt i32 %29, %30
  br i1 %31, label %32, label %58

32:                                               ; preds = %28
  %33 = load i32, i32* %5, align 4
  %34 = sext i32 %33 to i64
  %35 = getelementptr inbounds [120 x i8], [120 x i8]* %3, i64 0, i64 %34
  %36 = load i8, i8* %35, align 1
  %37 = sext i8 %36 to i32
  %38 = icmp eq i32 %37, 40
  br i1 %38, label %39, label %43

39:                                               ; preds = %32
  %40 = load i32, i32* %5, align 4
  %41 = sext i32 %40 to i64
  %42 = getelementptr inbounds [120 x i32], [120 x i32]* %2, i64 0, i64 %41
  store i32 1, i32* %42, align 4
  br label %43

43:                                               ; preds = %39, %32
  %44 = load i32, i32* %5, align 4
  %45 = sext i32 %44 to i64
  %46 = getelementptr inbounds [120 x i8], [120 x i8]* %3, i64 0, i64 %45
  %47 = load i8, i8* %46, align 1
  %48 = sext i8 %47 to i32
  %49 = icmp eq i32 %48, 41
  br i1 %49, label %50, label %54

50:                                               ; preds = %43
  %51 = load i32, i32* %5, align 4
  %52 = sext i32 %51 to i64
  %53 = getelementptr inbounds [120 x i32], [120 x i32]* %2, i64 0, i64 %52
  store i32 -1, i32* %53, align 4
  br label %54

54:                                               ; preds = %50, %43
  br label %55

55:                                               ; preds = %54
  %56 = load i32, i32* %5, align 4
  %57 = add nsw i32 %56, 1
  store i32 %57, i32* %5, align 4
  br label %28

58:                                               ; preds = %28
  store i32 0, i32* %5, align 4
  br label %59

59:                                               ; preds = %167, %58
  %60 = load i32, i32* %5, align 4
  %61 = load i32, i32* %10, align 4
  %62 = icmp slt i32 %60, %61
  br i1 %62, label %63, label %170

63:                                               ; preds = %59
  %64 = load i32, i32* %5, align 4
  %65 = sext i32 %64 to i64
  %66 = getelementptr inbounds [120 x i8], [120 x i8]* %3, i64 0, i64 %65
  %67 = load i8, i8* %66, align 1
  %68 = sext i8 %67 to i32
  %69 = icmp eq i32 %68, 40
  br i1 %69, label %70, label %115

70:                                               ; preds = %63
  %71 = load i32, i32* %5, align 4
  %72 = sext i32 %71 to i64
  %73 = getelementptr inbounds [120 x i32], [120 x i32]* %2, i64 0, i64 %72
  %74 = load i32, i32* %73, align 4
  %75 = icmp ne i32 %74, 0
  br i1 %75, label %76, label %115

76:                                               ; preds = %70
  %77 = load i32, i32* %5, align 4
  %78 = add nsw i32 %77, 1
  store i32 %78, i32* %6, align 4
  br label %79

79:                                               ; preds = %91, %76
  %80 = load i32, i32* %6, align 4
  %81 = sext i32 %80 to i64
  %82 = getelementptr inbounds [120 x i32], [120 x i32]* %2, i64 0, i64 %81
  %83 = load i32, i32* %82, align 4
  %84 = icmp eq i32 %83, 0
  br i1 %84, label %85, label %89

85:                                               ; preds = %79
  %86 = load i32, i32* %6, align 4
  %87 = load i32, i32* %10, align 4
  %88 = icmp slt i32 %86, %87
  br label %89

89:                                               ; preds = %85, %79
  %90 = phi i1 [ false, %79 ], [ %88, %85 ]
  br i1 %90, label %91, label %94

91:                                               ; preds = %89
  %92 = load i32, i32* %6, align 4
  %93 = add nsw i32 %92, 1
  store i32 %93, i32* %6, align 4
  br label %79

94:                                               ; preds = %89
  %95 = load i32, i32* %6, align 4
  %96 = sext i32 %95 to i64
  %97 = getelementptr inbounds [120 x i8], [120 x i8]* %3, i64 0, i64 %96
  %98 = load i8, i8* %97, align 1
  %99 = sext i8 %98 to i32
  %100 = icmp eq i32 %99, 41
  br i1 %100, label %101, label %114

101:                                              ; preds = %94
  %102 = load i32, i32* %6, align 4
  %103 = sext i32 %102 to i64
  %104 = getelementptr inbounds [120 x i32], [120 x i32]* %2, i64 0, i64 %103
  %105 = load i32, i32* %104, align 4
  %106 = icmp ne i32 %105, 0
  br i1 %106, label %107, label %114

107:                                              ; preds = %101
  %108 = load i32, i32* %5, align 4
  %109 = sext i32 %108 to i64
  %110 = getelementptr inbounds [120 x i32], [120 x i32]* %2, i64 0, i64 %109
  store i32 0, i32* %110, align 4
  %111 = load i32, i32* %6, align 4
  %112 = sext i32 %111 to i64
  %113 = getelementptr inbounds [120 x i32], [120 x i32]* %2, i64 0, i64 %112
  store i32 0, i32* %113, align 4
  br label %114

114:                                              ; preds = %107, %101, %94
  br label %115

115:                                              ; preds = %114, %70, %63
  %116 = load i32, i32* %5, align 4
  %117 = sext i32 %116 to i64
  %118 = getelementptr inbounds [120 x i8], [120 x i8]* %3, i64 0, i64 %117
  %119 = load i8, i8* %118, align 1
  %120 = sext i8 %119 to i32
  %121 = icmp eq i32 %120, 41
  br i1 %121, label %122, label %166

122:                                              ; preds = %115
  %123 = load i32, i32* %5, align 4
  %124 = sext i32 %123 to i64
  %125 = getelementptr inbounds [120 x i32], [120 x i32]* %2, i64 0, i64 %124
  %126 = load i32, i32* %125, align 4
  %127 = icmp ne i32 %126, 0
  br i1 %127, label %128, label %166

128:                                              ; preds = %122
  %129 = load i32, i32* %5, align 4
  %130 = sub nsw i32 %129, 1
  store i32 %130, i32* %6, align 4
  br label %131

131:                                              ; preds = %142, %128
  %132 = load i32, i32* %6, align 4
  %133 = sext i32 %132 to i64
  %134 = getelementptr inbounds [120 x i32], [120 x i32]* %2, i64 0, i64 %133
  %135 = load i32, i32* %134, align 4
  %136 = icmp eq i32 %135, 0
  br i1 %136, label %137, label %140

137:                                              ; preds = %131
  %138 = load i32, i32* %6, align 4
  %139 = icmp sgt i32 %138, 0
  br label %140

140:                                              ; preds = %137, %131
  %141 = phi i1 [ false, %131 ], [ %139, %137 ]
  br i1 %141, label %142, label %145

142:                                              ; preds = %140
  %143 = load i32, i32* %6, align 4
  %144 = add nsw i32 %143, -1
  store i32 %144, i32* %6, align 4
  br label %131

145:                                              ; preds = %140
  %146 = load i32, i32* %6, align 4
  %147 = sext i32 %146 to i64
  %148 = getelementptr inbounds [120 x i8], [120 x i8]* %3, i64 0, i64 %147
  %149 = load i8, i8* %148, align 1
  %150 = sext i8 %149 to i32
  %151 = icmp eq i32 %150, 40
  br i1 %151, label %152, label %165

152:                                              ; preds = %145
  %153 = load i32, i32* %6, align 4
  %154 = sext i32 %153 to i64
  %155 = getelementptr inbounds [120 x i32], [120 x i32]* %2, i64 0, i64 %154
  %156 = load i32, i32* %155, align 4
  %157 = icmp ne i32 %156, 0
  br i1 %157, label %158, label %165

158:                                              ; preds = %152
  %159 = load i32, i32* %5, align 4
  %160 = sext i32 %159 to i64
  %161 = getelementptr inbounds [120 x i32], [120 x i32]* %2, i64 0, i64 %160
  store i32 0, i32* %161, align 4
  %162 = load i32, i32* %6, align 4
  %163 = sext i32 %162 to i64
  %164 = getelementptr inbounds [120 x i32], [120 x i32]* %2, i64 0, i64 %163
  store i32 0, i32* %164, align 4
  br label %165

165:                                              ; preds = %158, %152, %145
  br label %166

166:                                              ; preds = %165, %122, %115
  br label %167

167:                                              ; preds = %166
  %168 = load i32, i32* %5, align 4
  %169 = add nsw i32 %168, 1
  store i32 %169, i32* %5, align 4
  br label %59

170:                                              ; preds = %59
  %171 = getelementptr inbounds [120 x i8], [120 x i8]* %3, i64 0, i64 0
  %172 = call i32 (i8*, ...) @printf(i8* getelementptr inbounds ([4 x i8], [4 x i8]* @.str, i64 0, i64 0), i8* %171)
  store i32 0, i32* %5, align 4
  br label %173

173:                                              ; preds = %197, %170
  %174 = load i32, i32* %5, align 4
  %175 = load i32, i32* %10, align 4
  %176 = icmp slt i32 %174, %175
  br i1 %176, label %177, label %200

177:                                              ; preds = %173
  %178 = load i32, i32* %5, align 4
  %179 = sext i32 %178 to i64
  %180 = getelementptr inbounds [120 x i32], [120 x i32]* %2, i64 0, i64 %179
  %181 = load i32, i32* %180, align 4
  %182 = icmp eq i32 %181, 1
  br i1 %182, label %183, label %185

183:                                              ; preds = %177
  %184 = call i32 (i8*, ...) @printf(i8* getelementptr inbounds ([2 x i8], [2 x i8]* @.str.1, i64 0, i64 0))
  br label %196

185:                                              ; preds = %177
  %186 = load i32, i32* %5, align 4
  %187 = sext i32 %186 to i64
  %188 = getelementptr inbounds [120 x i32], [120 x i32]* %2, i64 0, i64 %187
  %189 = load i32, i32* %188, align 4
  %190 = icmp eq i32 %189, -1
  br i1 %190, label %191, label %193

191:                                              ; preds = %185
  %192 = call i32 (i8*, ...) @printf(i8* getelementptr inbounds ([2 x i8], [2 x i8]* @.str.2, i64 0, i64 0))
  br label %195

193:                                              ; preds = %185
  %194 = call i32 (i8*, ...) @printf(i8* getelementptr inbounds ([2 x i8], [2 x i8]* @.str.3, i64 0, i64 0))
  br label %195

195:                                              ; preds = %193, %191
  br label %196

196:                                              ; preds = %195, %183
  br label %197

197:                                              ; preds = %196
  %198 = load i32, i32* %5, align 4
  %199 = add nsw i32 %198, 1
  store i32 %199, i32* %5, align 4
  br label %173

200:                                              ; preds = %173
  %201 = call i32 (i8*, ...) @printf(i8* getelementptr inbounds ([2 x i8], [2 x i8]* @.str.4, i64 0, i64 0))
  br label %11

202:                                              ; preds = %18
  ret i32 0
}

declare dso_local i32 @gets(...) #1

; Function Attrs: nounwind readonly
declare dso_local i32 @strcmp(i8*, i8*) #2

; Function Attrs: nounwind
declare dso_local i8* @strcpy(i8*, i8*) #3

; Function Attrs: argmemonly nounwind willreturn
declare void @llvm.memset.p0i8.i64(i8* nocapture writeonly, i8, i64, i1 immarg) #4

; Function Attrs: nounwind readonly
declare dso_local i64 @strlen(i8*) #2

declare dso_local i32 @printf(i8*, ...) #1


!llvm.module.flags = !{!0}
!llvm.ident = !{!1}

!0 = !{i32 1, !"wchar_size", i32 4}
!1 = !{!"clang version 10.0.0-4ubuntu1 "}
